; Function Attrs: nounwind uwtable
define dso_local ptr @jsonpath_yy_scan_buffer(ptr noundef %0, i64 noundef %1, ptr noundef captures(none) %2) local_unnamed_addr #0 {
  %4 = icmp ult i64 %1, 2
  br i1 %4, label %27, label %5

5:                                                ; preds = %3
  %6 = add i64 %1, -2
  %7 = getelementptr inbounds nuw i8, ptr %0, i64 %6
  %8 = load i8, ptr %7, align 1
  %.not = icmp eq i8 %8, 0
  br i1 %.not, label %9, label %27

9:                                                ; preds = %5
  %10 = getelementptr i8, ptr %0, i64 %1
  %11 = getelementptr i8, ptr %10, i64 -1
  %12 = load i8, ptr %11, align 1
  %.not26 = icmp eq i8 %12, 0
  br i1 %.not26, label %13, label %27

13:                                               ; preds = %9
  %14 = tail call ptr @palloc(i64 noundef 64) #17
  %.not27 = icmp eq ptr %14, null
  br i1 %.not27, label %15, label %16

15:                                               ; preds = %13
  tail call fastcc void @yy_fatal_error(ptr noundef nonnull @.str.10) #18
  unreachable

16:                                               ; preds = %13
  %17 = trunc i64 %6 to i32
  %18 = getelementptr inbounds nuw i8, ptr %14, i64 24
  store i32 %17, ptr %18, align 8
  %19 = getelementptr inbounds nuw i8, ptr %14, i64 8
  store ptr %0, ptr %19, align 8
  %20 = getelementptr inbounds nuw i8, ptr %14, i64 16
  store ptr %0, ptr %20, align 8
  %21 = getelementptr inbounds nuw i8, ptr %14, i64 32
  store i32 0, ptr %21, align 8
  store ptr null, ptr %14, align 8
  %22 = getelementptr inbounds nuw i8, ptr %14, i64 28
  store i32 %17, ptr %22, align 4
  %23 = getelementptr inbounds nuw i8, ptr %14, i64 36
  store i32 0, ptr %23, align 4
  %24 = getelementptr inbounds nuw i8, ptr %14, i64 40
  store i32 1, ptr %24, align 8
  %25 = getelementptr inbounds nuw i8, ptr %14, i64 52
  store i32 0, ptr %25, align 4
  %26 = getelementptr inbounds nuw i8, ptr %14, i64 56
  store i32 0, ptr %26, align 8
  tail call void @jsonpath_yy_switch_to_buffer(ptr noundef nonnull %14, ptr noundef %2)
  br label %27

27:                                               ; preds = %3, %5, %9, %16
  %.0 = phi ptr [ %14, %16 ], [ null, %9 ], [ null, %5 ], [ null, %3 ]
  ret ptr %.0
}